; Function Attrs: nounwind uwtable
define internal fastcc range(i32 -1, 1) i32 @H5T__imp_bit(i32 noundef %0, ptr nocapture noundef readonly %1, ptr nocapture noundef readonly %2, ptr nocapture noundef readonly %3, ptr nocapture noundef readonly %4, ptr nocapture noundef writeonly %5) unnamed_addr #0 {
  %.not47.i = icmp eq i32 %0, 0
  br i1 %.not47.i, label %._crit_edge.i, label %.lr.ph.preheader.i

.lr.ph.preheader.i:                               ; preds = %6
  %wide.trip.count.i = zext i32 %0 to i64
  br label %.lr.ph.i

.lr.ph.i:                                         ; preds = %.loopexit.i, %.lr.ph.preheader.i
  %indvars.iv.i = phi i64 [ 0, %.lr.ph.preheader.i ], [ %indvars.iv.next.i, %.loopexit.i ]
  %7 = getelementptr inbounds i32, ptr %1, i64 %indvars.iv.i
  %8 = load i32, ptr %7, align 4
  %.not.i = icmp slt i32 %8, %0
  br i1 %.not.i, label %13, label %9

9:                                                ; preds = %.lr.ph.i
  %10 = load i64, ptr @H5E_DATATYPE_g, align 8
  %11 = load i64, ptr @H5E_CANTINIT_g, align 8
  %12 = tail call i32 (ptr, ptr, i32, i64, i64, ptr, ...) @H5E_printf_stack(ptr noundef nonnull @.str, ptr noundef nonnull @__func__.H5T__bit_cmp, i32 noundef 266, i64 noundef %10, i64 noundef %11, ptr noundef nonnull @.str.13) #8
  br label %32

13:                                               ; preds = %.lr.ph.i
  %14 = sext i32 %8 to i64
  %15 = getelementptr inbounds i8, ptr %2, i64 %14
  %16 = load i8, ptr %15, align 1
  %17 = getelementptr inbounds i8, ptr %4, i64 %14
  %18 = load i8, ptr %17, align 1
  %19 = and i8 %18, %16
  %20 = getelementptr inbounds i8, ptr %3, i64 %14
  %21 = load i8, ptr %20, align 1
  %22 = and i8 %21, %18
  %.not38.i = icmp eq i8 %19, %22
  br i1 %.not38.i, label %.loopexit.i, label %.preheader.i

.preheader.i:                                     ; preds = %13, %25
  %.045.i = phi i32 [ %26, %25 ], [ 0, %13 ]
  %.03444.i = phi i8 [ %28, %25 ], [ %22, %13 ]
  %.03543.i = phi i8 [ %27, %25 ], [ %19, %13 ]
  %23 = xor i8 %.03543.i, %.03444.i
  %24 = and i8 %23, 1
  %.not39.i = icmp eq i8 %24, 0
  br i1 %.not39.i, label %25, label %36

25:                                               ; preds = %.preheader.i
  %26 = add nuw nsw i32 %.045.i, 1
  %27 = lshr i8 %.03543.i, 1
  %28 = lshr i8 %.03444.i, 1
  %exitcond.not.i = icmp eq i32 %26, 8
  br i1 %exitcond.not.i, label %.loopexit.i, label %.preheader.i

.loopexit.i:                                      ; preds = %25, %13
  %indvars.iv.next.i = add nuw nsw i64 %indvars.iv.i, 1
  %exitcond52.not.i = icmp eq i64 %indvars.iv.next.i, %wide.trip.count.i
  br i1 %exitcond52.not.i, label %._crit_edge.i, label %.lr.ph.i

._crit_edge.i:                                    ; preds = %.loopexit.i, %6
  %29 = load i64, ptr @H5E_DATATYPE_g, align 8
  %30 = load i64, ptr @H5E_CANTINIT_g, align 8
  %31 = tail call i32 (ptr, ptr, i32, i64, i64, ptr, ...) @H5E_printf_stack(ptr noundef nonnull @.str, ptr noundef nonnull @__func__.H5T__bit_cmp, i32 noundef 280, i64 noundef %29, i64 noundef %30, ptr noundef nonnull @.str.14) #8
  br label %32

32:                                               ; preds = %9, %._crit_edge.i
  %33 = load i64, ptr @H5E_DATATYPE_g, align 8
  %34 = load i64, ptr @H5E_CANTINIT_g, align 8
  %35 = tail call i32 (ptr, ptr, i32, i64, i64, ptr, ...) @H5E_printf_stack(ptr noundef nonnull @.str, ptr noundef nonnull @__func__.H5T__imp_bit, i32 noundef 387, i64 noundef %33, i64 noundef %34, ptr noundef nonnull @.str.12) #8
  br label %53

36:                                               ; preds = %.preheader.i
  %37 = trunc nuw nsw i64 %indvars.iv.i to i32
  %38 = shl nuw nsw i32 %37, 3
  %39 = add nsw i32 %38, -1
  %40 = add i32 %39, %.045.i
  %41 = lshr i32 %40, 3
  %42 = and i32 %40, 7
  %43 = zext nneg i32 %41 to i64
  %44 = getelementptr inbounds i32, ptr %1, i64 %43
  %45 = load i32, ptr %44, align 4
  %46 = sext i32 %45 to i64
  %47 = getelementptr inbounds i8, ptr %2, i64 %46
  %48 = load i8, ptr %47, align 1
  %49 = zext i8 %48 to i32
  %50 = xor i32 %49, -1
  %51 = lshr i32 %50, %42
  %52 = and i32 %51, 1
  store i32 %52, ptr %5, align 4
  br label %53

53:                                               ; preds = %36, %32
  %.0 = phi i32 [ -1, %32 ], [ 0, %36 ]
  ret i32 %.0
}